target datalayout = "e-m:e-p270:32:32-p271:32:32-p272:64:64-i64:64-i128:128-f80:128-n8:16:32:64-S128"
target triple = "x86_64-pc-linux-gnu"

%struct.FLAC__StreamMetadata = type { i32, i32, i32, %union.anon }
%union.anon = type { %struct.FLAC__StreamMetadata_CueSheet }
%struct.FLAC__StreamMetadata_CueSheet = type { [129 x i8], i64, i32, i32, ptr }
%struct.FLAC__StreamMetadata_CueSheet_Track = type { i64, i8, [13 x i8], i8, i8, ptr }
%struct.FLAC__StreamMetadata_CueSheet_Index = type { i64, i8 }

; Function Attrs: nounwind sspstrong uwtable
define internal i32 @cddb_add_digits_(i32 noundef %0) #0 {
  %2 = alloca i32, align 4
  %3 = alloca i32, align 4
  store i32 %0, ptr %2, align 4, !tbaa !3
  call void @llvm.lifetime.start.p0(i64 4, ptr %3) #12
  store i32 0, ptr %3, align 4, !tbaa !3
  br label %4

4:                                                ; preds = %7, %1
  %5 = load i32, ptr %2, align 4, !tbaa !3
  %6 = icmp ne i32 %5, 0
  br i1 %6, label %7, label %14

7:                                                ; preds = %4
  %8 = load i32, ptr %2, align 4, !tbaa !3
  %9 = urem i32 %8, 10
  %10 = load i32, ptr %3, align 4, !tbaa !3
  %11 = add i32 %10, %9
  store i32 %11, ptr %3, align 4, !tbaa !3
  %12 = load i32, ptr %2, align 4, !tbaa !3
  %13 = udiv i32 %12, 10
  store i32 %13, ptr %2, align 4, !tbaa !3
  br label %4, !llvm.loop !107

14:                                               ; preds = %4
  %15 = load i32, ptr %3, align 4, !tbaa !3
  call void @llvm.lifetime.end.p0(i64 4, ptr %3) #12
  ret i32 %15
}

; Function Attrs: nounwind sspstrong uwtable
define internal i64 @get_index_01_offset_(ptr noundef %0, i32 noundef %1) #0 {
  %3 = alloca i64, align 8
  %4 = alloca ptr, align 8
  %5 = alloca i32, align 4
  store ptr %0, ptr %4, align 8, !tbaa !27
  store i32 %1, ptr %5, align 4, !tbaa !3
  %6 = load i32, ptr %5, align 4, !tbaa !3
  %7 = load ptr, ptr %4, align 8, !tbaa !27
  %8 = getelementptr inbounds nuw %struct.FLAC__StreamMetadata_CueSheet, ptr %7, i32 0, i32 3
  %9 = load i32, ptr %8, align 4, !tbaa !63
  %10 = sub i32 %9, 1
  %11 = icmp uge i32 %6, %10
  br i1 %11, label %23, label %12

12:                                               ; preds = %2
  %13 = load ptr, ptr %4, align 8, !tbaa !27
  %14 = getelementptr inbounds nuw %struct.FLAC__StreamMetadata_CueSheet, ptr %13, i32 0, i32 4
  %15 = load ptr, ptr %14, align 8, !tbaa !64
  %16 = load i32, ptr %5, align 4, !tbaa !3
  %17 = zext i32 %16 to i64
  %18 = getelementptr inbounds nuw %struct.FLAC__StreamMetadata_CueSheet_Track, ptr %15, i64 %17
  %19 = getelementptr inbounds nuw %struct.FLAC__StreamMetadata_CueSheet_Track, ptr %18, i32 0, i32 4
  %20 = load i8, ptr %19, align 1, !tbaa !23
  %21 = zext i8 %20 to i32
  %22 = icmp slt i32 %21, 1
  br i1 %22, label %23, label %24

23:                                               ; preds = %12, %2
  store i64 0, ptr %3, align 8
  br label %115

24:                                               ; preds = %12
  %25 = load ptr, ptr %4, align 8, !tbaa !27
  %26 = getelementptr inbounds nuw %struct.FLAC__StreamMetadata_CueSheet, ptr %25, i32 0, i32 4
  %27 = load ptr, ptr %26, align 8, !tbaa !64
  %28 = load i32, ptr %5, align 4, !tbaa !3
  %29 = zext i32 %28 to i64
  %30 = getelementptr inbounds nuw %struct.FLAC__StreamMetadata_CueSheet_Track, ptr %27, i64 %29
  %31 = getelementptr inbounds nuw %struct.FLAC__StreamMetadata_CueSheet_Track, ptr %30, i32 0, i32 5
  %32 = load ptr, ptr %31, align 8, !tbaa !33
  %33 = getelementptr inbounds %struct.FLAC__StreamMetadata_CueSheet_Index, ptr %32, i64 0
  %34 = getelementptr inbounds nuw %struct.FLAC__StreamMetadata_CueSheet_Index, ptr %33, i32 0, i32 1
  %35 = load i8, ptr %34, align 8, !tbaa !69
  %36 = zext i8 %35 to i32
  %37 = icmp eq i32 %36, 1
  br i1 %37, label %38, label %63

38:                                               ; preds = %24
  %39 = load ptr, ptr %4, align 8, !tbaa !27
  %40 = getelementptr inbounds nuw %struct.FLAC__StreamMetadata_CueSheet, ptr %39, i32 0, i32 4
  %41 = load ptr, ptr %40, align 8, !tbaa !64
  %42 = load i32, ptr %5, align 4, !tbaa !3
  %43 = zext i32 %42 to i64
  %44 = getelementptr inbounds nuw %struct.FLAC__StreamMetadata_CueSheet_Track, ptr %41, i64 %43
  %45 = getelementptr inbounds nuw %struct.FLAC__StreamMetadata_CueSheet_Track, ptr %44, i32 0, i32 5
  %46 = load ptr, ptr %45, align 8, !tbaa !33
  %47 = getelementptr inbounds %struct.FLAC__StreamMetadata_CueSheet_Index, ptr %46, i64 0
  %48 = getelementptr inbounds nuw %struct.FLAC__StreamMetadata_CueSheet_Index, ptr %47, i32 0, i32 0
  %49 = load i64, ptr %48, align 8, !tbaa !67
  %50 = load ptr, ptr %4, align 8, !tbaa !27
  %51 = getelementptr inbounds nuw %struct.FLAC__StreamMetadata_CueSheet, ptr %50, i32 0, i32 4
  %52 = load ptr, ptr %51, align 8, !tbaa !64
  %53 = load i32, ptr %5, align 4, !tbaa !3
  %54 = zext i32 %53 to i64
  %55 = getelementptr inbounds nuw %struct.FLAC__StreamMetadata_CueSheet_Track, ptr %52, i64 %54
  %56 = getelementptr inbounds nuw %struct.FLAC__StreamMetadata_CueSheet_Track, ptr %55, i32 0, i32 0
  %57 = load i64, ptr %56, align 8, !tbaa !65
  %58 = add i64 %49, %57
  %59 = load ptr, ptr %4, align 8, !tbaa !27
  %60 = getelementptr inbounds nuw %struct.FLAC__StreamMetadata_CueSheet, ptr %59, i32 0, i32 1
  %61 = load i64, ptr %60, align 8, !tbaa !60
  %62 = add i64 %58, %61
  store i64 %62, ptr %3, align 8
  br label %115

63:                                               ; preds = %24
  %64 = load ptr, ptr %4, align 8, !tbaa !27
  %65 = getelementptr inbounds nuw %struct.FLAC__StreamMetadata_CueSheet, ptr %64, i32 0, i32 4
  %66 = load ptr, ptr %65, align 8, !tbaa !64
  %67 = load i32, ptr %5, align 4, !tbaa !3
  %68 = zext i32 %67 to i64
  %69 = getelementptr inbounds nuw %struct.FLAC__StreamMetadata_CueSheet_Track, ptr %66, i64 %68
  %70 = getelementptr inbounds nuw %struct.FLAC__StreamMetadata_CueSheet_Track, ptr %69, i32 0, i32 4
  %71 = load i8, ptr %70, align 1, !tbaa !23
  %72 = zext i8 %71 to i32
  %73 = icmp slt i32 %72, 2
  br i1 %73, label %74, label %75

74:                                               ; preds = %63
  store i64 0, ptr %3, align 8
  br label %115

75:                                               ; preds = %63
  %76 = load ptr, ptr %4, align 8, !tbaa !27
  %77 = getelementptr inbounds nuw %struct.FLAC__StreamMetadata_CueSheet, ptr %76, i32 0, i32 4
  %78 = load ptr, ptr %77, align 8, !tbaa !64
  %79 = load i32, ptr %5, align 4, !tbaa !3
  %80 = zext i32 %79 to i64
  %81 = getelementptr inbounds nuw %struct.FLAC__StreamMetadata_CueSheet_Track, ptr %78, i64 %80
  %82 = getelementptr inbounds nuw %struct.FLAC__StreamMetadata_CueSheet_Track, ptr %81, i32 0, i32 5
  %83 = load ptr, ptr %82, align 8, !tbaa !33
  %84 = getelementptr inbounds %struct.FLAC__StreamMetadata_CueSheet_Index, ptr %83, i64 1
  %85 = getelementptr inbounds nuw %struct.FLAC__StreamMetadata_CueSheet_Index, ptr %84, i32 0, i32 1
  %86 = load i8, ptr %85, align 8, !tbaa !69
  %87 = zext i8 %86 to i32
  %88 = icmp eq i32 %87, 1
  br i1 %88, label %89, label %114

89:                                               ; preds = %75
  %90 = load ptr, ptr %4, align 8, !tbaa !27
  %91 = getelementptr inbounds nuw %struct.FLAC__StreamMetadata_CueSheet, ptr %90, i32 0, i32 4
  %92 = load ptr, ptr %91, align 8, !tbaa !64
  %93 = load i32, ptr %5, align 4, !tbaa !3
  %94 = zext i32 %93 to i64
  %95 = getelementptr inbounds nuw %struct.FLAC__StreamMetadata_CueSheet_Track, ptr %92, i64 %94
  %96 = getelementptr inbounds nuw %struct.FLAC__StreamMetadata_CueSheet_Track, ptr %95, i32 0, i32 5
  %97 = load ptr, ptr %96, align 8, !tbaa !33
  %98 = getelementptr inbounds %struct.FLAC__StreamMetadata_CueSheet_Index, ptr %97, i64 1
  %99 = getelementptr inbounds nuw %struct.FLAC__StreamMetadata_CueSheet_Index, ptr %98, i32 0, i32 0
  %100 = load i64, ptr %99, align 8, !tbaa !67
  %101 = load ptr, ptr %4, align 8, !tbaa !27
  %102 = getelementptr inbounds nuw %struct.FLAC__StreamMetadata_CueSheet, ptr %101, i32 0, i32 4
  %103 = load ptr, ptr %102, align 8, !tbaa !64
  %104 = load i32, ptr %5, align 4, !tbaa !3
  %105 = zext i32 %104 to i64
  %106 = getelementptr inbounds nuw %struct.FLAC__StreamMetadata_CueSheet_Track, ptr %103, i64 %105
  %107 = getelementptr inbounds nuw %struct.FLAC__StreamMetadata_CueSheet_Track, ptr %106, i32 0, i32 0
  %108 = load i64, ptr %107, align 8, !tbaa !65
  %109 = add i64 %100, %108
  %110 = load ptr, ptr %4, align 8, !tbaa !27
  %111 = getelementptr inbounds nuw %struct.FLAC__StreamMetadata_CueSheet, ptr %110, i32 0, i32 1
  %112 = load i64, ptr %111, align 8, !tbaa !60
  %113 = add i64 %109, %112
  store i64 %113, ptr %3, align 8
  br label %115

114:                                              ; preds = %75
  store i64 0, ptr %3, align 8
  br label %115

115:                                              ; preds = %114, %89, %74, %38, %23
  %116 = load i64, ptr %3, align 8
  ret i64 %116
}

; Function Attrs: nounwind sspstrong uwtable
define i32 @FLAC__metadata_object_cuesheet_calculate_cddb_id(ptr noundef %0) #0 {
  %2 = alloca i32, align 4
  %3 = alloca ptr, align 8
  %4 = alloca ptr, align 8
  %5 = alloca i32, align 4
  %6 = alloca i32, align 4
  %7 = alloca i32, align 4
  %8 = alloca i32, align 4
  store ptr %0, ptr %3, align 8, !tbaa !7
  call void @llvm.lifetime.start.p0(i64 8, ptr %4) #12
  %9 = load ptr, ptr %3, align 8, !tbaa !7
  %10 = getelementptr inbounds nuw %struct.FLAC__StreamMetadata, ptr %9, i32 0, i32 3
  store ptr %10, ptr %4, align 8, !tbaa !27
  %11 = load ptr, ptr %4, align 8, !tbaa !27
  %12 = getelementptr inbounds nuw %struct.FLAC__StreamMetadata_CueSheet, ptr %11, i32 0, i32 3
  %13 = load i32, ptr %12, align 4, !tbaa !63
  %14 = icmp ult i32 %13, 2
  br i1 %14, label %15, label %16

15:                                               ; preds = %1
  store i32 0, ptr %2, align 4
  store i32 1, ptr %5, align 4
  br label %70

16:                                               ; preds = %1
  call void @llvm.lifetime.start.p0(i64 4, ptr %6) #12
  call void @llvm.lifetime.start.p0(i64 4, ptr %7) #12
  call void @llvm.lifetime.start.p0(i64 4, ptr %8) #12
  store i32 0, ptr %8, align 4, !tbaa !3
  store i32 0, ptr %6, align 4, !tbaa !3
  br label %17

17:                                               ; preds = %33, %16
  %18 = load i32, ptr %6, align 4, !tbaa !3
  %19 = load ptr, ptr %4, align 8, !tbaa !27
  %20 = getelementptr inbounds nuw %struct.FLAC__StreamMetadata_CueSheet, ptr %19, i32 0, i32 3
  %21 = load i32, ptr %20, align 4, !tbaa !63
  %22 = sub i32 %21, 1
  %23 = icmp ult i32 %18, %22
  br i1 %23, label %24, label %36

24:                                               ; preds = %17
  %25 = load ptr, ptr %4, align 8, !tbaa !27
  %26 = load i32, ptr %6, align 4, !tbaa !3
  %27 = call i64 @get_index_01_offset_(ptr noundef %25, i32 noundef %26)
  %28 = udiv i64 %27, 44100
  %29 = trunc i64 %28 to i32
  %30 = call i32 @cddb_add_digits_(i32 noundef %29)
  %31 = load i32, ptr %8, align 4, !tbaa !3
  %32 = add i32 %31, %30
  store i32 %32, ptr %8, align 4, !tbaa !3
  br label %33

33:                                               ; preds = %24
  %34 = load i32, ptr %6, align 4, !tbaa !3
  %35 = add i32 %34, 1
  store i32 %35, ptr %6, align 4, !tbaa !3
  br label %17, !llvm.loop !106

36:                                               ; preds = %17
  %37 = load ptr, ptr %4, align 8, !tbaa !27
  %38 = getelementptr inbounds nuw %struct.FLAC__StreamMetadata_CueSheet, ptr %37, i32 0, i32 4
  %39 = load ptr, ptr %38, align 8, !tbaa !64
  %40 = load ptr, ptr %4, align 8, !tbaa !27
  %41 = getelementptr inbounds nuw %struct.FLAC__StreamMetadata_CueSheet, ptr %40, i32 0, i32 3
  %42 = load i32, ptr %41, align 4, !tbaa !63
  %43 = sub i32 %42, 1
  %44 = zext i32 %43 to i64
  %45 = getelementptr inbounds nuw %struct.FLAC__StreamMetadata_CueSheet_Track, ptr %39, i64 %44
  %46 = getelementptr inbounds nuw %struct.FLAC__StreamMetadata_CueSheet_Track, ptr %45, i32 0, i32 0
  %47 = load i64, ptr %46, align 8, !tbaa !65
  %48 = load ptr, ptr %4, align 8, !tbaa !27
  %49 = getelementptr inbounds nuw %struct.FLAC__StreamMetadata_CueSheet, ptr %48, i32 0, i32 1
  %50 = load i64, ptr %49, align 8, !tbaa !60
  %51 = add i64 %47, %50
  %52 = udiv i64 %51, 44100
  %53 = trunc i64 %52 to i32
  %54 = load ptr, ptr %4, align 8, !tbaa !27
  %55 = call i64 @get_index_01_offset_(ptr noundef %54, i32 noundef 0)
  %56 = udiv i64 %55, 44100
  %57 = trunc i64 %56 to i32
  %58 = sub i32 %53, %57
  store i32 %58, ptr %7, align 4, !tbaa !3
  %59 = load i32, ptr %8, align 4, !tbaa !3
  %60 = urem i32 %59, 255
  %61 = shl i32 %60, 24
  %62 = load i32, ptr %7, align 4, !tbaa !3
  %63 = shl i32 %62, 8
  %64 = or i32 %61, %63
  %65 = load ptr, ptr %4, align 8, !tbaa !27
  %66 = getelementptr inbounds nuw %struct.FLAC__StreamMetadata_CueSheet, ptr %65, i32 0, i32 3
  %67 = load i32, ptr %66, align 4, !tbaa !63
  %68 = sub i32 %67, 1
  %69 = or i32 %64, %68
  store i32 %69, ptr %2, align 4
  store i32 1, ptr %5, align 4
  call void @llvm.lifetime.end.p0(i64 4, ptr %8) #12
  call void @llvm.lifetime.end.p0(i64 4, ptr %7) #12
  call void @llvm.lifetime.end.p0(i64 4, ptr %6) #12
  br label %70

70:                                               ; preds = %36, %15
  call void @llvm.lifetime.end.p0(i64 8, ptr %4) #12
  %71 = load i32, ptr %2, align 4
  ret i32 %71
}