; Function Attrs: nofree norecurse nosync nounwind sspstrong memory(read, inaccessiblemem: none) uwtable
define i32 @FLAC__metadata_object_cuesheet_calculate_cddb_id(ptr noundef readonly captures(none) %0) local_unnamed_addr #9 {
  %2 = getelementptr inbounds nuw i8, ptr %0, i64 164
  %3 = load i32, ptr %2, align 4, !tbaa !57
  %4 = icmp ult i32 %3, 2
  br i1 %4, label %78, label %.lr.ph

.lr.ph:                                           ; preds = %1
  %5 = add i32 %3, -1
  %6 = getelementptr inbounds nuw i8, ptr %0, i64 168
  %7 = getelementptr inbounds nuw i8, ptr %0, i64 152
  %8 = zext i32 %5 to i64
  br label %9

9:                                                ; preds = %.lr.ph, %cddb_add_digits_.exit
  %indvars.iv = phi i64 [ 0, %.lr.ph ], [ %indvars.iv.next, %cddb_add_digits_.exit ]
  %.029 = phi i32 [ 0, %.lr.ph ], [ %39, %cddb_add_digits_.exit ]
  %.not.i = icmp samesign ult i64 %indvars.iv, %8
  br i1 %.not.i, label %10, label %cddb_add_digits_.exit

10:                                               ; preds = %9
  %11 = load ptr, ptr %6, align 8, !tbaa !58
  %12 = getelementptr inbounds nuw %struct.FLAC__StreamMetadata_CueSheet_Track, ptr %11, i64 %indvars.iv
  %13 = getelementptr inbounds nuw i8, ptr %12, i64 23
  %14 = load i8, ptr %13, align 1, !tbaa !24
  %15 = icmp eq i8 %14, 0
  br i1 %15, label %cddb_add_digits_.exit, label %16

16:                                               ; preds = %10
  %17 = getelementptr inbounds nuw i8, ptr %12, i64 24
  %18 = load ptr, ptr %17, align 8, !tbaa !21
  %19 = getelementptr inbounds nuw i8, ptr %18, i64 8
  %20 = load i8, ptr %19, align 8, !tbaa !64
  %21 = icmp eq i8 %20, 1
  br i1 %21, label %get_index_01_offset_.exit, label %22

22:                                               ; preds = %16
  %23 = icmp eq i8 %14, 1
  br i1 %23, label %cddb_add_digits_.exit, label %24

24:                                               ; preds = %22
  %25 = getelementptr inbounds nuw i8, ptr %18, i64 24
  %26 = load i8, ptr %25, align 8, !tbaa !64
  %27 = icmp eq i8 %26, 1
  br i1 %27, label %28, label %cddb_add_digits_.exit

28:                                               ; preds = %24
  %29 = getelementptr inbounds nuw i8, ptr %18, i64 16
  br label %get_index_01_offset_.exit

get_index_01_offset_.exit:                        ; preds = %28, %16
  %.sink25.in.i = phi ptr [ %29, %28 ], [ %18, %16 ]
  %.sink25.i = load i64, ptr %.sink25.in.i, align 8, !tbaa !62
  %30 = load i64, ptr %12, align 8, !tbaa !59
  %31 = add i64 %30, %.sink25.i
  %32 = load i64, ptr %7, align 8, !tbaa !54
  %33 = add i64 %31, %32
  %34 = udiv i64 %33, 44100
  %35 = trunc i64 %34 to i32
  %.not6.i = icmp eq i32 %35, 0
  br i1 %.not6.i, label %cddb_add_digits_.exit, label %.lr.ph.i

.lr.ph.i:                                         ; preds = %get_index_01_offset_.exit, %.lr.ph.i
  %.08.i = phi i32 [ %37, %.lr.ph.i ], [ 0, %get_index_01_offset_.exit ]
  %.057.i = phi i32 [ %38, %.lr.ph.i ], [ %35, %get_index_01_offset_.exit ]
  %36 = urem i32 %.057.i, 10
  %37 = add i32 %36, %.08.i
  %38 = udiv i32 %.057.i, 10
  %.not.i18 = icmp ult i32 %.057.i, 10
  br i1 %.not.i18, label %cddb_add_digits_.exit, label %.lr.ph.i, !llvm.loop !97

cddb_add_digits_.exit:                            ; preds = %.lr.ph.i, %24, %22, %9, %10, %get_index_01_offset_.exit
  %.0.lcssa.i = phi i32 [ 0, %get_index_01_offset_.exit ], [ 0, %10 ], [ 0, %9 ], [ 0, %22 ], [ 0, %24 ], [ %37, %.lr.ph.i ]
  %39 = add i32 %.0.lcssa.i, %.029
  %indvars.iv.next = add nuw nsw i64 %indvars.iv, 1
  %exitcond.not = icmp eq i64 %indvars.iv.next, %8
  br i1 %exitcond.not, label %40, label %9, !llvm.loop !98

40:                                               ; preds = %cddb_add_digits_.exit
  %41 = urem i32 %39, 255
  %42 = shl nuw i32 %41, 24
  %43 = getelementptr inbounds nuw i8, ptr %0, i64 168
  %44 = load ptr, ptr %43, align 8, !tbaa !58
  %45 = getelementptr inbounds nuw %struct.FLAC__StreamMetadata_CueSheet_Track, ptr %44, i64 %8
  %46 = load i64, ptr %45, align 8, !tbaa !59
  %47 = getelementptr inbounds nuw i8, ptr %0, i64 152
  %48 = load i64, ptr %47, align 8, !tbaa !54
  %49 = add i64 %48, %46
  %50 = udiv i64 %49, 44100
  %51 = trunc i64 %50 to i32
  %52 = getelementptr inbounds nuw i8, ptr %44, i64 23
  %53 = load i8, ptr %52, align 1, !tbaa !24
  %54 = icmp eq i8 %53, 0
  br i1 %54, label %get_index_01_offset_.exit24, label %55

55:                                               ; preds = %40
  %56 = getelementptr inbounds nuw i8, ptr %44, i64 24
  %57 = load ptr, ptr %56, align 8, !tbaa !21
  %58 = getelementptr inbounds nuw i8, ptr %57, i64 8
  %59 = load i8, ptr %58, align 8, !tbaa !64
  %60 = icmp eq i8 %59, 1
  br i1 %60, label %.sink.split.i21, label %61

61:                                               ; preds = %55
  %62 = icmp eq i8 %53, 1
  br i1 %62, label %get_index_01_offset_.exit24, label %63

63:                                               ; preds = %61
  %64 = getelementptr inbounds nuw i8, ptr %57, i64 24
  %65 = load i8, ptr %64, align 8, !tbaa !64
  %66 = icmp eq i8 %65, 1
  br i1 %66, label %67, label %get_index_01_offset_.exit24

67:                                               ; preds = %63
  %68 = getelementptr inbounds nuw i8, ptr %57, i64 16
  br label %.sink.split.i21

.sink.split.i21:                                  ; preds = %55, %67
  %.sink25.in.i22 = phi ptr [ %68, %67 ], [ %57, %55 ]
  %.sink25.i23 = load i64, ptr %.sink25.in.i22, align 8, !tbaa !62
  %69 = load i64, ptr %44, align 8, !tbaa !59
  %70 = add i64 %69, %.sink25.i23
  %71 = add i64 %70, %48
  %72 = udiv i64 %71, 44100
  %73 = trunc i64 %72 to i32
  br label %get_index_01_offset_.exit24

get_index_01_offset_.exit24:                      ; preds = %40, %61, %63, %.sink.split.i21
  %.0.i20 = phi i32 [ 0, %40 ], [ 0, %61 ], [ 0, %63 ], [ %73, %.sink.split.i21 ]
  %74 = sub i32 %51, %.0.i20
  %75 = shl i32 %74, 8
  %76 = or i32 %42, %75
  %77 = or i32 %76, %5
  br label %78

78:                                               ; preds = %1, %get_index_01_offset_.exit24
  %.015 = phi i32 [ %77, %get_index_01_offset_.exit24 ], [ 0, %1 ]
  ret i32 %.015
}